target datalayout = "e-m:e-p270:32:32-p271:32:32-p272:64:64-i64:64-i128:128-f80:128-n8:16:32:64-S128"
target triple = "x86_64-pc-linux-gnu"

%struct.lxb_html_tokenizer = type { ptr, ptr, ptr, ptr, ptr, ptr, ptr, ptr, ptr, ptr, ptr, ptr, ptr, ptr, ptr, i64, ptr, ptr, ptr, ptr, ptr, i64, i64, ptr, ptr, i64, i64, i32, i32, i8, i32, i32, i8, ptr, i64 }
%struct.lxb_html_token_t = type { ptr, ptr, i64, i64, ptr, ptr, ptr, ptr, ptr, i64, i64, i32 }
%struct.lxb_html_token_attr = type { ptr, ptr, ptr, ptr, ptr, ptr, i64, ptr, ptr, i32 }

; Function Attrs: nounwind uwtable
define internal void @lxb_html_token_clean(ptr noundef %0) #0 {
  %2 = alloca ptr, align 8
  store ptr %0, ptr %2, align 8
  %3 = load ptr, ptr %2, align 8
  call void @llvm.memset.p0.i64(ptr align 8 %3, i8 0, i64 96, i1 false)
  ret void
}

; Function Attrs: nounwind uwtable
define internal ptr @lxb_html_tokenizer_state_after_attribute_name(ptr noundef %0, ptr noundef %1, ptr noundef %2) #0 {
  %4 = alloca ptr, align 8
  %5 = alloca ptr, align 8
  %6 = alloca ptr, align 8
  %7 = alloca ptr, align 8
  %8 = alloca ptr, align 8
  store ptr %0, ptr %5, align 8
  store ptr %1, ptr %6, align 8
  store ptr %2, ptr %7, align 8
  br label %9

9:                                                ; preds = %133, %3
  %10 = load ptr, ptr %6, align 8
  %11 = load ptr, ptr %7, align 8
  %12 = icmp ne ptr %10, %11
  br i1 %12, label %13, label %136

13:                                               ; preds = %9
  %14 = load ptr, ptr %6, align 8
  %15 = load i8, ptr %14, align 1
  %16 = zext i8 %15 to i32
  switch i32 %16, label %99 [
    i32 9, label %17
    i32 10, label %17
    i32 12, label %17
    i32 13, label %17
    i32 32, label %17
    i32 47, label %18
    i32 61, label %23
    i32 62, label %28
    i32 0, label %84
  ]

17:                                               ; preds = %13, %13, %13, %13, %13
  br label %133

18:                                               ; preds = %13
  %19 = load ptr, ptr %5, align 8
  %20 = getelementptr inbounds %struct.lxb_html_tokenizer, ptr %19, i32 0, i32 0
  store ptr @lxb_html_tokenizer_state_self_closing_start_tag, ptr %20, align 8
  %21 = load ptr, ptr %6, align 8
  %22 = getelementptr inbounds i8, ptr %21, i64 1
  store ptr %22, ptr %4, align 8
  br label %138

23:                                               ; preds = %13
  %24 = load ptr, ptr %5, align 8
  %25 = getelementptr inbounds %struct.lxb_html_tokenizer, ptr %24, i32 0, i32 0
  store ptr @lxb_html_tokenizer_state_before_attribute_value, ptr %25, align 8
  %26 = load ptr, ptr %6, align 8
  %27 = getelementptr inbounds i8, ptr %26, i64 1
  store ptr %27, ptr %4, align 8
  br label %138

28:                                               ; preds = %13
  %29 = load ptr, ptr %5, align 8
  %30 = getelementptr inbounds %struct.lxb_html_tokenizer, ptr %29, i32 0, i32 0
  store ptr @lxb_html_tokenizer_state_data_before, ptr %30, align 8
  br label %31

31:                                               ; preds = %28
  %32 = load ptr, ptr %5, align 8
  %33 = getelementptr inbounds %struct.lxb_html_tokenizer, ptr %32, i32 0, i32 8
  %34 = load ptr, ptr %33, align 8
  %35 = getelementptr inbounds %struct.lxb_html_token_t, ptr %34, i32 0, i32 0
  %36 = load ptr, ptr %35, align 8
  %37 = load ptr, ptr %5, align 8
  %38 = getelementptr inbounds %struct.lxb_html_tokenizer, ptr %37, i32 0, i32 8
  %39 = load ptr, ptr %38, align 8
  %40 = getelementptr inbounds %struct.lxb_html_token_t, ptr %39, i32 0, i32 1
  %41 = load ptr, ptr %40, align 8
  %42 = icmp ne ptr %36, %41
  br i1 %42, label %43, label %72

43:                                               ; preds = %31
  %44 = load ptr, ptr %5, align 8
  %45 = getelementptr inbounds %struct.lxb_html_tokenizer, ptr %44, i32 0, i32 2
  %46 = load ptr, ptr %45, align 8
  %47 = load ptr, ptr %5, align 8
  %48 = load ptr, ptr %5, align 8
  %49 = getelementptr inbounds %struct.lxb_html_tokenizer, ptr %48, i32 0, i32 8
  %50 = load ptr, ptr %49, align 8
  %51 = load ptr, ptr %5, align 8
  %52 = getelementptr inbounds %struct.lxb_html_tokenizer, ptr %51, i32 0, i32 3
  %53 = load ptr, ptr %52, align 8
  %54 = call ptr %46(ptr noundef %47, ptr noundef %50, ptr noundef %53)
  %55 = load ptr, ptr %5, align 8
  %56 = getelementptr inbounds %struct.lxb_html_tokenizer, ptr %55, i32 0, i32 8
  store ptr %54, ptr %56, align 8
  %57 = load ptr, ptr %5, align 8
  %58 = getelementptr inbounds %struct.lxb_html_tokenizer, ptr %57, i32 0, i32 8
  %59 = load ptr, ptr %58, align 8
  %60 = icmp eq ptr %59, null
  br i1 %60, label %61, label %71

61:                                               ; preds = %43
  %62 = load ptr, ptr %5, align 8
  %63 = getelementptr inbounds %struct.lxb_html_tokenizer, ptr %62, i32 0, i32 31
  %64 = load i32, ptr %63, align 8
  %65 = icmp eq i32 %64, 0
  br i1 %65, label %66, label %69

66:                                               ; preds = %61
  %67 = load ptr, ptr %5, align 8
  %68 = getelementptr inbounds %struct.lxb_html_tokenizer, ptr %67, i32 0, i32 31
  store i32 1, ptr %68, align 8
  br label %69

69:                                               ; preds = %66, %61
  %70 = load ptr, ptr %7, align 8
  store ptr %70, ptr %4, align 8
  br label %138

71:                                               ; preds = %43
  br label %72

72:                                               ; preds = %71, %31
  %73 = load ptr, ptr %5, align 8
  %74 = getelementptr inbounds %struct.lxb_html_tokenizer, ptr %73, i32 0, i32 8
  %75 = load ptr, ptr %74, align 8
  call void @lxb_html_token_clean(ptr noundef %75)
  %76 = load ptr, ptr %5, align 8
  %77 = getelementptr inbounds %struct.lxb_html_tokenizer, ptr %76, i32 0, i32 16
  %78 = load ptr, ptr %77, align 8
  %79 = load ptr, ptr %5, align 8
  %80 = getelementptr inbounds %struct.lxb_html_tokenizer, ptr %79, i32 0, i32 17
  store ptr %78, ptr %80, align 8
  br label %81

81:                                               ; preds = %72
  %82 = load ptr, ptr %6, align 8
  %83 = getelementptr inbounds i8, ptr %82, i64 1
  store ptr %83, ptr %4, align 8
  br label %138

84:                                               ; preds = %13
  %85 = load ptr, ptr %5, align 8
  %86 = getelementptr inbounds %struct.lxb_html_tokenizer, ptr %85, i32 0, i32 32
  %87 = load i8, ptr %86, align 4
  %88 = trunc i8 %87 to i1
  br i1 %88, label %89, label %98

89:                                               ; preds = %84
  %90 = load ptr, ptr %5, align 8
  %91 = getelementptr inbounds %struct.lxb_html_tokenizer, ptr %90, i32 0, i32 11
  %92 = load ptr, ptr %91, align 8
  %93 = load ptr, ptr %5, align 8
  %94 = getelementptr inbounds %struct.lxb_html_tokenizer, ptr %93, i32 0, i32 20
  %95 = load ptr, ptr %94, align 8
  %96 = call ptr @lxb_html_tokenizer_error_add(ptr noundef %92, ptr noundef %95, i32 noundef 16)
  %97 = load ptr, ptr %7, align 8
  store ptr %97, ptr %4, align 8
  br label %138

98:                                               ; preds = %84
  br label %99

99:                                               ; preds = %98, %13
  br label %100

100:                                              ; preds = %99
  %101 = load ptr, ptr %5, align 8
  %102 = getelementptr inbounds %struct.lxb_html_tokenizer, ptr %101, i32 0, i32 8
  %103 = load ptr, ptr %102, align 8
  %104 = load ptr, ptr %5, align 8
  %105 = getelementptr inbounds %struct.lxb_html_tokenizer, ptr %104, i32 0, i32 10
  %106 = load ptr, ptr %105, align 8
  %107 = call ptr @lxb_html_token_attr_append(ptr noundef %103, ptr noundef %106)
  store ptr %107, ptr %8, align 8
  %108 = load ptr, ptr %8, align 8
  %109 = icmp eq ptr %108, null
  br i1 %109, label %110, label %114

110:                                              ; preds = %100
  %111 = load ptr, ptr %5, align 8
  %112 = getelementptr inbounds %struct.lxb_html_tokenizer, ptr %111, i32 0, i32 31
  store i32 2, ptr %112, align 8
  %113 = load ptr, ptr %7, align 8
  store ptr %113, ptr %4, align 8
  br label %138

114:                                              ; preds = %100
  br label %115

115:                                              ; preds = %114
  br label %116

116:                                              ; preds = %115
  %117 = load ptr, ptr %5, align 8
  %118 = getelementptr inbounds %struct.lxb_html_tokenizer, ptr %117, i32 0, i32 16
  %119 = load ptr, ptr %118, align 8
  %120 = load ptr, ptr %5, align 8
  %121 = getelementptr inbounds %struct.lxb_html_tokenizer, ptr %120, i32 0, i32 17
  store ptr %119, ptr %121, align 8
  %122 = load ptr, ptr %6, align 8
  %123 = load ptr, ptr %5, align 8
  %124 = getelementptr inbounds %struct.lxb_html_tokenizer, ptr %123, i32 0, i32 8
  %125 = load ptr, ptr %124, align 8
  %126 = getelementptr inbounds %struct.lxb_html_token_t, ptr %125, i32 0, i32 7
  %127 = load ptr, ptr %126, align 8
  %128 = getelementptr inbounds %struct.lxb_html_token_attr, ptr %127, i32 0, i32 0
  store ptr %122, ptr %128, align 8
  br label %129

129:                                              ; preds = %116
  %130 = load ptr, ptr %5, align 8
  %131 = getelementptr inbounds %struct.lxb_html_tokenizer, ptr %130, i32 0, i32 0
  store ptr @lxb_html_tokenizer_state_attribute_name, ptr %131, align 8
  %132 = load ptr, ptr %6, align 8
  store ptr %132, ptr %4, align 8
  br label %138

133:                                              ; preds = %17
  %134 = load ptr, ptr %6, align 8
  %135 = getelementptr inbounds i8, ptr %134, i32 1
  store ptr %135, ptr %6, align 8
  br label %9

136:                                              ; preds = %9
  %137 = load ptr, ptr %6, align 8
  store ptr %137, ptr %4, align 8
  br label %138

138:                                              ; preds = %136, %129, %110, %89, %81, %69, %23, %18
  %139 = load ptr, ptr %4, align 8
  ret ptr %139
}