; Function Attrs: nounwind uwtable
define internal ptr @lxb_html_tokenizer_state_after_attribute_name(ptr noundef %0, ptr noundef %1, ptr noundef readnone %2) #1 {
  %.not52 = icmp eq ptr %1, %2
  br i1 %.not52, label %.loopexit, label %.lr.ph.preheader

.lr.ph.preheader:                                 ; preds = %3
  %4 = ptrtoint ptr %2 to i64
  %5 = ptrtoint ptr %1 to i64
  %6 = sub i64 %4, %5
  %scevgep = getelementptr i8, ptr %1, i64 %6
  br label %.lr.ph

.lr.ph:                                           ; preds = %.lr.ph.preheader, %61
  %.04153 = phi ptr [ %62, %61 ], [ %1, %.lr.ph.preheader ]
  %7 = load i8, ptr %.04153, align 1
  switch i8 %7, label %.loopexit45 [
    i8 9, label %61
    i8 10, label %61
    i8 12, label %61
    i8 13, label %61
    i8 32, label %61
    i8 47, label %8
    i8 61, label %10
    i8 62, label %12
    i8 0, label %36
  ]

8:                                                ; preds = %.lr.ph
  store ptr @lxb_html_tokenizer_state_self_closing_start_tag, ptr %0, align 8
  %9 = getelementptr inbounds i8, ptr %.04153, i64 1
  br label %.loopexit

10:                                               ; preds = %.lr.ph
  store ptr @lxb_html_tokenizer_state_before_attribute_value, ptr %0, align 8
  %11 = getelementptr inbounds i8, ptr %.04153, i64 1
  br label %.loopexit

12:                                               ; preds = %.lr.ph
  store ptr @lxb_html_tokenizer_state_data_before, ptr %0, align 8
  %13 = getelementptr inbounds i8, ptr %0, i64 64
  %14 = load ptr, ptr %13, align 8
  %15 = load ptr, ptr %14, align 8
  %16 = getelementptr inbounds i8, ptr %14, i64 8
  %17 = load ptr, ptr %16, align 8
  %.not44 = icmp eq ptr %15, %17
  br i1 %.not44, label %30, label %18

18:                                               ; preds = %12
  %19 = getelementptr inbounds i8, ptr %0, i64 16
  %20 = load ptr, ptr %19, align 8
  %21 = getelementptr inbounds i8, ptr %0, i64 24
  %22 = load ptr, ptr %21, align 8
  %23 = tail call ptr %20(ptr noundef nonnull %0, ptr noundef nonnull %14, ptr noundef %22) #5
  store ptr %23, ptr %13, align 8
  %24 = icmp eq ptr %23, null
  br i1 %24, label %25, label %30

25:                                               ; preds = %18
  %26 = getelementptr inbounds i8, ptr %0, i64 232
  %27 = load i32, ptr %26, align 8
  %28 = icmp eq i32 %27, 0
  br i1 %28, label %29, label %.loopexit

29:                                               ; preds = %25
  store i32 1, ptr %26, align 8
  br label %.loopexit

30:                                               ; preds = %18, %12
  %31 = phi ptr [ %23, %18 ], [ %14, %12 ]
  tail call void @llvm.memset.p0.i64(ptr noundef nonnull align 8 dereferenceable(96) %31, i8 0, i64 96, i1 false)
  %32 = getelementptr inbounds i8, ptr %0, i64 128
  %33 = load ptr, ptr %32, align 8
  %34 = getelementptr inbounds i8, ptr %0, i64 136
  store ptr %33, ptr %34, align 8
  %35 = getelementptr inbounds i8, ptr %.04153, i64 1
  br label %.loopexit

36:                                               ; preds = %.lr.ph
  %37 = getelementptr inbounds i8, ptr %0, i64 236
  %38 = load i8, ptr %37, align 4
  %39 = and i8 %38, 1
  %.not43 = icmp eq i8 %39, 0
  br i1 %.not43, label %.loopexit45, label %40

40:                                               ; preds = %36
  %41 = getelementptr inbounds i8, ptr %0, i64 88
  %42 = load ptr, ptr %41, align 8
  %43 = getelementptr inbounds i8, ptr %0, i64 160
  %44 = load ptr, ptr %43, align 8
  %45 = tail call ptr @lxb_html_tokenizer_error_add(ptr noundef %42, ptr noundef %44, i32 noundef 16) #5
  br label %.loopexit

.loopexit45:                                      ; preds = %.lr.ph, %36
  %46 = getelementptr inbounds i8, ptr %0, i64 64
  %47 = load ptr, ptr %46, align 8
  %48 = getelementptr inbounds i8, ptr %0, i64 80
  %49 = load ptr, ptr %48, align 8
  %50 = tail call ptr @lxb_html_token_attr_append(ptr noundef %47, ptr noundef %49) #5
  %51 = icmp eq ptr %50, null
  br i1 %51, label %52, label %54

52:                                               ; preds = %.loopexit45
  %53 = getelementptr inbounds i8, ptr %0, i64 232
  store i32 2, ptr %53, align 8
  br label %.loopexit

54:                                               ; preds = %.loopexit45
  %55 = getelementptr inbounds i8, ptr %0, i64 128
  %56 = load ptr, ptr %55, align 8
  %57 = getelementptr inbounds i8, ptr %0, i64 136
  store ptr %56, ptr %57, align 8
  %58 = load ptr, ptr %46, align 8
  %59 = getelementptr inbounds i8, ptr %58, i64 56
  %60 = load ptr, ptr %59, align 8
  store ptr %.04153, ptr %60, align 8
  store ptr @lxb_html_tokenizer_state_attribute_name, ptr %0, align 8
  br label %.loopexit

61:                                               ; preds = %.lr.ph, %.lr.ph, %.lr.ph, %.lr.ph, %.lr.ph
  %62 = getelementptr inbounds i8, ptr %.04153, i64 1
  %.not = icmp eq ptr %62, %2
  br i1 %.not, label %.loopexit, label %.lr.ph

.loopexit:                                        ; preds = %61, %3, %25, %29, %54, %52, %40, %30, %10, %8
  %.0 = phi ptr [ %2, %52 ], [ %.04153, %54 ], [ %2, %40 ], [ %35, %30 ], [ %11, %10 ], [ %9, %8 ], [ %2, %29 ], [ %2, %25 ], [ %1, %3 ], [ %scevgep, %61 ]
  ret ptr %.0
}